target datalayout = "e-m:e-p270:32:32-p271:32:32-p272:64:64-i64:64-i128:128-f80:128-n8:16:32:64-S128"
target triple = "x86_64-pc-linux-gnu"

%struct.Iso_Man_t_ = type { ptr, ptr, i32, i32, i32, i32, i32, i32, ptr, ptr, ptr, ptr, ptr, i64, i64, i64, i64, i64 }
%struct.Vec_Ptr_t_ = type { i32, i32, ptr }

@.str.6 = private unnamed_addr constant [5 x i8] c"%s =\00", align 1
@.str.7 = private unnamed_addr constant [10 x i8] c"Building \00", align 1
@.str.8 = private unnamed_addr constant [22 x i8] c"%9.2f sec (%6.2f %%)\0A\00", align 1
@.str.9 = private unnamed_addr constant [10 x i8] c"Hashing  \00", align 1
@.str.10 = private unnamed_addr constant [10 x i8] c"Sorting  \00", align 1
@.str.11 = private unnamed_addr constant [10 x i8] c"Other    \00", align 1
@.str.12 = private unnamed_addr constant [10 x i8] c"TOTAL    \00", align 1

; Function Attrs: inlinehint nounwind uwtable
define internal void @Vec_PtrFree(ptr noundef %0) #4 {
  %2 = alloca ptr, align 8
  store ptr %0, ptr %2, align 8, !tbaa !57
  %3 = load ptr, ptr %2, align 8, !tbaa !57
  %4 = getelementptr inbounds nuw %struct.Vec_Ptr_t_, ptr %3, i32 0, i32 2
  %5 = load ptr, ptr %4, align 8, !tbaa !61
  %6 = icmp ne ptr %5, null
  br i1 %6, label %7, label %13

7:                                                ; preds = %1
  %8 = load ptr, ptr %2, align 8, !tbaa !57
  %9 = getelementptr inbounds nuw %struct.Vec_Ptr_t_, ptr %8, i32 0, i32 2
  %10 = load ptr, ptr %9, align 8, !tbaa !61
  call void @free(ptr noundef %10) #11
  %11 = load ptr, ptr %2, align 8, !tbaa !57
  %12 = getelementptr inbounds nuw %struct.Vec_Ptr_t_, ptr %11, i32 0, i32 2
  store ptr null, ptr %12, align 8, !tbaa !61
  br label %14

13:                                               ; preds = %1
  br label %14

14:                                               ; preds = %13, %7
  %15 = load ptr, ptr %2, align 8, !tbaa !57
  %16 = icmp ne ptr %15, null
  br i1 %16, label %17, label %19

17:                                               ; preds = %14
  %18 = load ptr, ptr %2, align 8, !tbaa !57
  call void @free(ptr noundef %18) #11
  store ptr null, ptr %2, align 8, !tbaa !57
  br label %20

19:                                               ; preds = %14
  br label %20

20:                                               ; preds = %19, %17
  ret void
}

; Function Attrs: nounwind uwtable
define void @Iso_ManStop(ptr noundef %0, i32 noundef %1) #0 {
  %3 = alloca ptr, align 8
  %4 = alloca i32, align 4
  store ptr %0, ptr %3, align 8, !tbaa !40
  store i32 %1, ptr %4, align 4, !tbaa !8
  %5 = load i32, ptr %4, align 4, !tbaa !8
  %6 = icmp ne i32 %5, 0
  br i1 %6, label %7, label %154

7:                                                ; preds = %2
  %8 = load ptr, ptr %3, align 8, !tbaa !40
  %9 = getelementptr inbounds nuw %struct.Iso_Man_t_, ptr %8, i32 0, i32 17
  %10 = load i64, ptr %9, align 8, !tbaa !62
  %11 = load ptr, ptr %3, align 8, !tbaa !40
  %12 = getelementptr inbounds nuw %struct.Iso_Man_t_, ptr %11, i32 0, i32 13
  %13 = load i64, ptr %12, align 8, !tbaa !63
  %14 = sub nsw i64 %10, %13
  %15 = load ptr, ptr %3, align 8, !tbaa !40
  %16 = getelementptr inbounds nuw %struct.Iso_Man_t_, ptr %15, i32 0, i32 14
  %17 = load i64, ptr %16, align 8, !tbaa !64
  %18 = sub nsw i64 %14, %17
  %19 = load ptr, ptr %3, align 8, !tbaa !40
  %20 = getelementptr inbounds nuw %struct.Iso_Man_t_, ptr %19, i32 0, i32 16
  store i64 %18, ptr %20, align 8, !tbaa !65
  call void (i32, ptr, ...) @Abc_Print(i32 noundef 1, ptr noundef @.str.6, ptr noundef @.str.7)
  %21 = load ptr, ptr %3, align 8, !tbaa !40
  %22 = getelementptr inbounds nuw %struct.Iso_Man_t_, ptr %21, i32 0, i32 14
  %23 = load i64, ptr %22, align 8, !tbaa !64
  %24 = sitofp i64 %23 to double
  %25 = fmul double 1.000000e+00, %24
  %26 = fdiv double %25, 1.000000e+06
  %27 = load ptr, ptr %3, align 8, !tbaa !40
  %28 = getelementptr inbounds nuw %struct.Iso_Man_t_, ptr %27, i32 0, i32 17
  %29 = load i64, ptr %28, align 8, !tbaa !62
  %30 = sitofp i64 %29 to double
  %31 = fcmp une double %30, 0.000000e+00
  br i1 %31, label %32, label %43

32:                                               ; preds = %7
  %33 = load ptr, ptr %3, align 8, !tbaa !40
  %34 = getelementptr inbounds nuw %struct.Iso_Man_t_, ptr %33, i32 0, i32 14
  %35 = load i64, ptr %34, align 8, !tbaa !64
  %36 = sitofp i64 %35 to double
  %37 = fmul double 1.000000e+02, %36
  %38 = load ptr, ptr %3, align 8, !tbaa !40
  %39 = getelementptr inbounds nuw %struct.Iso_Man_t_, ptr %38, i32 0, i32 17
  %40 = load i64, ptr %39, align 8, !tbaa !62
  %41 = sitofp i64 %40 to double
  %42 = fdiv double %37, %41
  br label %44

43:                                               ; preds = %7
  br label %44

44:                                               ; preds = %43, %32
  %45 = phi double [ %42, %32 ], [ 0.000000e+00, %43 ]
  call void (i32, ptr, ...) @Abc_Print(i32 noundef 1, ptr noundef @.str.8, double noundef %26, double noundef %45)
  call void (i32, ptr, ...) @Abc_Print(i32 noundef 1, ptr noundef @.str.6, ptr noundef @.str.9)
  %46 = load ptr, ptr %3, align 8, !tbaa !40
  %47 = getelementptr inbounds nuw %struct.Iso_Man_t_, ptr %46, i32 0, i32 13
  %48 = load i64, ptr %47, align 8, !tbaa !63
  %49 = load ptr, ptr %3, align 8, !tbaa !40
  %50 = getelementptr inbounds nuw %struct.Iso_Man_t_, ptr %49, i32 0, i32 15
  %51 = load i64, ptr %50, align 8, !tbaa !66
  %52 = sub nsw i64 %48, %51
  %53 = sitofp i64 %52 to double
  %54 = fmul double 1.000000e+00, %53
  %55 = fdiv double %54, 1.000000e+06
  %56 = load ptr, ptr %3, align 8, !tbaa !40
  %57 = getelementptr inbounds nuw %struct.Iso_Man_t_, ptr %56, i32 0, i32 17
  %58 = load i64, ptr %57, align 8, !tbaa !62
  %59 = sitofp i64 %58 to double
  %60 = fcmp une double %59, 0.000000e+00
  br i1 %60, label %61, label %76

61:                                               ; preds = %44
  %62 = load ptr, ptr %3, align 8, !tbaa !40
  %63 = getelementptr inbounds nuw %struct.Iso_Man_t_, ptr %62, i32 0, i32 13
  %64 = load i64, ptr %63, align 8, !tbaa !63
  %65 = load ptr, ptr %3, align 8, !tbaa !40
  %66 = getelementptr inbounds nuw %struct.Iso_Man_t_, ptr %65, i32 0, i32 15
  %67 = load i64, ptr %66, align 8, !tbaa !66
  %68 = sub nsw i64 %64, %67
  %69 = sitofp i64 %68 to double
  %70 = fmul double 1.000000e+02, %69
  %71 = load ptr, ptr %3, align 8, !tbaa !40
  %72 = getelementptr inbounds nuw %struct.Iso_Man_t_, ptr %71, i32 0, i32 17
  %73 = load i64, ptr %72, align 8, !tbaa !62
  %74 = sitofp i64 %73 to double
  %75 = fdiv double %70, %74
  br label %77

76:                                               ; preds = %44
  br label %77

77:                                               ; preds = %76, %61
  %78 = phi double [ %75, %61 ], [ 0.000000e+00, %76 ]
  call void (i32, ptr, ...) @Abc_Print(i32 noundef 1, ptr noundef @.str.8, double noundef %55, double noundef %78)
  call void (i32, ptr, ...) @Abc_Print(i32 noundef 1, ptr noundef @.str.6, ptr noundef @.str.10)
  %79 = load ptr, ptr %3, align 8, !tbaa !40
  %80 = getelementptr inbounds nuw %struct.Iso_Man_t_, ptr %79, i32 0, i32 15
  %81 = load i64, ptr %80, align 8, !tbaa !66
  %82 = sitofp i64 %81 to double
  %83 = fmul double 1.000000e+00, %82
  %84 = fdiv double %83, 1.000000e+06
  %85 = load ptr, ptr %3, align 8, !tbaa !40
  %86 = getelementptr inbounds nuw %struct.Iso_Man_t_, ptr %85, i32 0, i32 17
  %87 = load i64, ptr %86, align 8, !tbaa !62
  %88 = sitofp i64 %87 to double
  %89 = fcmp une double %88, 0.000000e+00
  br i1 %89, label %90, label %101

90:                                               ; preds = %77
  %91 = load ptr, ptr %3, align 8, !tbaa !40
  %92 = getelementptr inbounds nuw %struct.Iso_Man_t_, ptr %91, i32 0, i32 15
  %93 = load i64, ptr %92, align 8, !tbaa !66
  %94 = sitofp i64 %93 to double
  %95 = fmul double 1.000000e+02, %94
  %96 = load ptr, ptr %3, align 8, !tbaa !40
  %97 = getelementptr inbounds nuw %struct.Iso_Man_t_, ptr %96, i32 0, i32 17
  %98 = load i64, ptr %97, align 8, !tbaa !62
  %99 = sitofp i64 %98 to double
  %100 = fdiv double %95, %99
  br label %102

101:                                              ; preds = %77
  br label %102

102:                                              ; preds = %101, %90
  %103 = phi double [ %100, %90 ], [ 0.000000e+00, %101 ]
  call void (i32, ptr, ...) @Abc_Print(i32 noundef 1, ptr noundef @.str.8, double noundef %84, double noundef %103)
  call void (i32, ptr, ...) @Abc_Print(i32 noundef 1, ptr noundef @.str.6, ptr noundef @.str.11)
  %104 = load ptr, ptr %3, align 8, !tbaa !40
  %105 = getelementptr inbounds nuw %struct.Iso_Man_t_, ptr %104, i32 0, i32 16
  %106 = load i64, ptr %105, align 8, !tbaa !65
  %107 = sitofp i64 %106 to double
  %108 = fmul double 1.000000e+00, %107
  %109 = fdiv double %108, 1.000000e+06
  %110 = load ptr, ptr %3, align 8, !tbaa !40
  %111 = getelementptr inbounds nuw %struct.Iso_Man_t_, ptr %110, i32 0, i32 17
  %112 = load i64, ptr %111, align 8, !tbaa !62
  %113 = sitofp i64 %112 to double
  %114 = fcmp une double %113, 0.000000e+00
  br i1 %114, label %115, label %126

115:                                              ; preds = %102
  %116 = load ptr, ptr %3, align 8, !tbaa !40
  %117 = getelementptr inbounds nuw %struct.Iso_Man_t_, ptr %116, i32 0, i32 16
  %118 = load i64, ptr %117, align 8, !tbaa !65
  %119 = sitofp i64 %118 to double
  %120 = fmul double 1.000000e+02, %119
  %121 = load ptr, ptr %3, align 8, !tbaa !40
  %122 = getelementptr inbounds nuw %struct.Iso_Man_t_, ptr %121, i32 0, i32 17
  %123 = load i64, ptr %122, align 8, !tbaa !62
  %124 = sitofp i64 %123 to double
  %125 = fdiv double %120, %124
  br label %127

126:                                              ; preds = %102
  br label %127

127:                                              ; preds = %126, %115
  %128 = phi double [ %125, %115 ], [ 0.000000e+00, %126 ]
  call void (i32, ptr, ...) @Abc_Print(i32 noundef 1, ptr noundef @.str.8, double noundef %109, double noundef %128)
  call void (i32, ptr, ...) @Abc_Print(i32 noundef 1, ptr noundef @.str.6, ptr noundef @.str.12)
  %129 = load ptr, ptr %3, align 8, !tbaa !40
  %130 = getelementptr inbounds nuw %struct.Iso_Man_t_, ptr %129, i32 0, i32 17
  %131 = load i64, ptr %130, align 8, !tbaa !62
  %132 = sitofp i64 %131 to double
  %133 = fmul double 1.000000e+00, %132
  %134 = fdiv double %133, 1.000000e+06
  %135 = load ptr, ptr %3, align 8, !tbaa !40
  %136 = getelementptr inbounds nuw %struct.Iso_Man_t_, ptr %135, i32 0, i32 17
  %137 = load i64, ptr %136, align 8, !tbaa !62
  %138 = sitofp i64 %137 to double
  %139 = fcmp une double %138, 0.000000e+00
  br i1 %139, label %140, label %151

140:                                              ; preds = %127
  %141 = load ptr, ptr %3, align 8, !tbaa !40
  %142 = getelementptr inbounds nuw %struct.Iso_Man_t_, ptr %141, i32 0, i32 17
  %143 = load i64, ptr %142, align 8, !tbaa !62
  %144 = sitofp i64 %143 to double
  %145 = fmul double 1.000000e+02, %144
  %146 = load ptr, ptr %3, align 8, !tbaa !40
  %147 = getelementptr inbounds nuw %struct.Iso_Man_t_, ptr %146, i32 0, i32 17
  %148 = load i64, ptr %147, align 8, !tbaa !62
  %149 = sitofp i64 %148 to double
  %150 = fdiv double %145, %149
  br label %152

151:                                              ; preds = %127
  br label %152

152:                                              ; preds = %151, %140
  %153 = phi double [ %150, %140 ], [ 0.000000e+00, %151 ]
  call void (i32, ptr, ...) @Abc_Print(i32 noundef 1, ptr noundef @.str.8, double noundef %134, double noundef %153)
  br label %154

154:                                              ; preds = %152, %2
  %155 = load ptr, ptr %3, align 8, !tbaa !40
  %156 = getelementptr inbounds nuw %struct.Iso_Man_t_, ptr %155, i32 0, i32 11
  %157 = load ptr, ptr %156, align 8, !tbaa !51
  call void @Vec_PtrFree(ptr noundef %157)
  %158 = load ptr, ptr %3, align 8, !tbaa !40
  %159 = getelementptr inbounds nuw %struct.Iso_Man_t_, ptr %158, i32 0, i32 12
  %160 = load ptr, ptr %159, align 8, !tbaa !52
  call void @Vec_PtrFree(ptr noundef %160)
  %161 = load ptr, ptr %3, align 8, !tbaa !40
  %162 = getelementptr inbounds nuw %struct.Iso_Man_t_, ptr %161, i32 0, i32 10
  %163 = load ptr, ptr %162, align 8, !tbaa !50
  call void @Vec_PtrFree(ptr noundef %163)
  %164 = load ptr, ptr %3, align 8, !tbaa !40
  %165 = getelementptr inbounds nuw %struct.Iso_Man_t_, ptr %164, i32 0, i32 9
  %166 = load ptr, ptr %165, align 8, !tbaa !49
  call void @Vec_PtrFree(ptr noundef %166)
  %167 = load ptr, ptr %3, align 8, !tbaa !40
  %168 = getelementptr inbounds nuw %struct.Iso_Man_t_, ptr %167, i32 0, i32 8
  %169 = load ptr, ptr %168, align 8, !tbaa !48
  %170 = icmp ne ptr %169, null
  br i1 %170, label %171, label %177

171:                                              ; preds = %154
  %172 = load ptr, ptr %3, align 8, !tbaa !40
  %173 = getelementptr inbounds nuw %struct.Iso_Man_t_, ptr %172, i32 0, i32 8
  %174 = load ptr, ptr %173, align 8, !tbaa !48
  call void @free(ptr noundef %174) #11
  %175 = load ptr, ptr %3, align 8, !tbaa !40
  %176 = getelementptr inbounds nuw %struct.Iso_Man_t_, ptr %175, i32 0, i32 8
  store ptr null, ptr %176, align 8, !tbaa !48
  br label %178

177:                                              ; preds = %154
  br label %178

178:                                              ; preds = %177, %171
  %179 = load ptr, ptr %3, align 8, !tbaa !40
  %180 = getelementptr inbounds nuw %struct.Iso_Man_t_, ptr %179, i32 0, i32 1
  %181 = load ptr, ptr %180, align 8, !tbaa !46
  %182 = icmp ne ptr %181, null
  br i1 %182, label %183, label %189

183:                                              ; preds = %178
  %184 = load ptr, ptr %3, align 8, !tbaa !40
  %185 = getelementptr inbounds nuw %struct.Iso_Man_t_, ptr %184, i32 0, i32 1
  %186 = load ptr, ptr %185, align 8, !tbaa !46
  call void @free(ptr noundef %186) #11
  %187 = load ptr, ptr %3, align 8, !tbaa !40
  %188 = getelementptr inbounds nuw %struct.Iso_Man_t_, ptr %187, i32 0, i32 1
  store ptr null, ptr %188, align 8, !tbaa !46
  br label %190

189:                                              ; preds = %178
  br label %190

190:                                              ; preds = %189, %183
  %191 = load ptr, ptr %3, align 8, !tbaa !40
  %192 = icmp ne ptr %191, null
  br i1 %192, label %193, label %195

193:                                              ; preds = %190
  %194 = load ptr, ptr %3, align 8, !tbaa !40
  call void @free(ptr noundef %194) #11
  store ptr null, ptr %3, align 8, !tbaa !40
  br label %196

195:                                              ; preds = %190
  br label %196

196:                                              ; preds = %195, %193
  ret void
}