; Function Attrs: nounwind uwtable
define void @Iso_ManStop(ptr noundef captures(none) %0, i32 noundef %1) local_unnamed_addr #0 {
  %.not = icmp eq i32 %1, 0
  br i1 %.not, label %54, label %3

3:                                                ; preds = %2
  %4 = getelementptr inbounds nuw i8, ptr %0, i64 112
  %5 = load i64, ptr %4, align 8, !tbaa !53
  %6 = getelementptr inbounds nuw i8, ptr %0, i64 80
  %7 = load i64, ptr %6, align 8, !tbaa !54
  %8 = getelementptr inbounds nuw i8, ptr %0, i64 88
  %9 = load i64, ptr %8, align 8, !tbaa !55
  %10 = add i64 %7, %9
  %11 = sub i64 %5, %10
  %12 = getelementptr inbounds nuw i8, ptr %0, i64 104
  store i64 %11, ptr %12, align 8, !tbaa !56
  tail call void (i32, ptr, ...) @Abc_Print(i32 poison, ptr noundef nonnull @.str.6, ptr noundef nonnull @.str.7)
  %13 = load i64, ptr %8, align 8, !tbaa !55
  %14 = sitofp i64 %13 to double
  %15 = fdiv double %14, 1.000000e+06
  %16 = load i64, ptr %4, align 8, !tbaa !53
  %.not45 = icmp eq i64 %16, 0
  %17 = sitofp i64 %16 to double
  %18 = fmul double %14, 1.000000e+02
  %19 = fdiv double %18, %17
  %20 = select i1 %.not45, double 0.000000e+00, double %19
  tail call void (i32, ptr, ...) @Abc_Print(i32 poison, ptr noundef nonnull @.str.8, double noundef %15, double noundef %20)
  tail call void (i32, ptr, ...) @Abc_Print(i32 poison, ptr noundef nonnull @.str.6, ptr noundef nonnull @.str.9)
  %21 = load i64, ptr %6, align 8, !tbaa !54
  %22 = getelementptr inbounds nuw i8, ptr %0, i64 96
  %23 = load i64, ptr %22, align 8, !tbaa !57
  %24 = sub nsw i64 %21, %23
  %25 = sitofp i64 %24 to double
  %26 = fdiv double %25, 1.000000e+06
  %27 = load i64, ptr %4, align 8, !tbaa !53
  %.not46 = icmp eq i64 %27, 0
  %28 = sitofp i64 %27 to double
  %29 = fmul double %25, 1.000000e+02
  %30 = fdiv double %29, %28
  %31 = select i1 %.not46, double 0.000000e+00, double %30
  tail call void (i32, ptr, ...) @Abc_Print(i32 poison, ptr noundef nonnull @.str.8, double noundef %26, double noundef %31)
  tail call void (i32, ptr, ...) @Abc_Print(i32 poison, ptr noundef nonnull @.str.6, ptr noundef nonnull @.str.10)
  %32 = load i64, ptr %22, align 8, !tbaa !57
  %33 = sitofp i64 %32 to double
  %34 = fdiv double %33, 1.000000e+06
  %35 = load i64, ptr %4, align 8, !tbaa !53
  %.not47 = icmp eq i64 %35, 0
  %36 = sitofp i64 %35 to double
  %37 = fmul double %33, 1.000000e+02
  %38 = fdiv double %37, %36
  %39 = select i1 %.not47, double 0.000000e+00, double %38
  tail call void (i32, ptr, ...) @Abc_Print(i32 poison, ptr noundef nonnull @.str.8, double noundef %34, double noundef %39)
  tail call void (i32, ptr, ...) @Abc_Print(i32 poison, ptr noundef nonnull @.str.6, ptr noundef nonnull @.str.11)
  %40 = load i64, ptr %12, align 8, !tbaa !56
  %41 = sitofp i64 %40 to double
  %42 = fdiv double %41, 1.000000e+06
  %43 = load i64, ptr %4, align 8, !tbaa !53
  %.not48 = icmp eq i64 %43, 0
  %44 = sitofp i64 %43 to double
  %45 = fmul double %41, 1.000000e+02
  %46 = fdiv double %45, %44
  %47 = select i1 %.not48, double 0.000000e+00, double %46
  tail call void (i32, ptr, ...) @Abc_Print(i32 poison, ptr noundef nonnull @.str.8, double noundef %42, double noundef %47)
  tail call void (i32, ptr, ...) @Abc_Print(i32 poison, ptr noundef nonnull @.str.6, ptr noundef nonnull @.str.12)
  %48 = load i64, ptr %4, align 8, !tbaa !53
  %49 = sitofp i64 %48 to double
  %50 = fdiv double %49, 1.000000e+06
  %.not49 = icmp eq i64 %48, 0
  %51 = fmul double %49, 1.000000e+02
  %52 = fdiv double %51, %49
  %53 = select i1 %.not49, double 0.000000e+00, double %52
  tail call void (i32, ptr, ...) @Abc_Print(i32 poison, ptr noundef nonnull @.str.8, double noundef %50, double noundef %53)
  br label %54

54:                                               ; preds = %3, %2
  %55 = getelementptr inbounds nuw i8, ptr %0, i64 64
  %56 = load ptr, ptr %55, align 8, !tbaa !50
  %57 = getelementptr inbounds nuw i8, ptr %56, i64 8
  %58 = load ptr, ptr %57, align 8, !tbaa !47
  %.not.i = icmp eq ptr %58, null
  br i1 %.not.i, label %Vec_PtrFree.exit, label %59

59:                                               ; preds = %54
  tail call void @free(ptr noundef nonnull %58) #23
  br label %Vec_PtrFree.exit

Vec_PtrFree.exit:                                 ; preds = %54, %59
  tail call void @free(ptr noundef nonnull %56) #23
  %60 = getelementptr inbounds nuw i8, ptr %0, i64 72
  %61 = load ptr, ptr %60, align 8, !tbaa !51
  %62 = getelementptr inbounds nuw i8, ptr %61, i64 8
  %63 = load ptr, ptr %62, align 8, !tbaa !47
  %.not.i53 = icmp eq ptr %63, null
  br i1 %.not.i53, label %Vec_PtrFree.exit54, label %64

64:                                               ; preds = %Vec_PtrFree.exit
  tail call void @free(ptr noundef nonnull %63) #23
  br label %Vec_PtrFree.exit54

Vec_PtrFree.exit54:                               ; preds = %Vec_PtrFree.exit, %64
  tail call void @free(ptr noundef nonnull %61) #23
  %65 = getelementptr inbounds nuw i8, ptr %0, i64 56
  %66 = load ptr, ptr %65, align 8, !tbaa !49
  %67 = getelementptr inbounds nuw i8, ptr %66, i64 8
  %68 = load ptr, ptr %67, align 8, !tbaa !47
  %.not.i55 = icmp eq ptr %68, null
  br i1 %.not.i55, label %Vec_PtrFree.exit56, label %69

69:                                               ; preds = %Vec_PtrFree.exit54
  tail call void @free(ptr noundef nonnull %68) #23
  br label %Vec_PtrFree.exit56

Vec_PtrFree.exit56:                               ; preds = %Vec_PtrFree.exit54, %69
  tail call void @free(ptr noundef nonnull %66) #23
  %70 = getelementptr inbounds nuw i8, ptr %0, i64 48
  %71 = load ptr, ptr %70, align 8, !tbaa !48
  %72 = getelementptr inbounds nuw i8, ptr %71, i64 8
  %73 = load ptr, ptr %72, align 8, !tbaa !47
  %.not.i57 = icmp eq ptr %73, null
  br i1 %.not.i57, label %Vec_PtrFree.exit58, label %74

74:                                               ; preds = %Vec_PtrFree.exit56
  tail call void @free(ptr noundef nonnull %73) #23
  br label %Vec_PtrFree.exit58

Vec_PtrFree.exit58:                               ; preds = %Vec_PtrFree.exit56, %74
  tail call void @free(ptr noundef nonnull %71) #23
  %75 = getelementptr inbounds nuw i8, ptr %0, i64 40
  %76 = load ptr, ptr %75, align 8, !tbaa !45
  %.not50 = icmp eq ptr %76, null
  br i1 %.not50, label %78, label %77

77:                                               ; preds = %Vec_PtrFree.exit58
  tail call void @free(ptr noundef nonnull %76) #23
  store ptr null, ptr %75, align 8, !tbaa !45
  br label %78

78:                                               ; preds = %Vec_PtrFree.exit58, %77
  %79 = getelementptr inbounds nuw i8, ptr %0, i64 8
  %80 = load ptr, ptr %79, align 8, !tbaa !41
  %.not51 = icmp eq ptr %80, null
  br i1 %.not51, label %82, label %81

81:                                               ; preds = %78
  tail call void @free(ptr noundef nonnull %80) #23
  br label %82

82:                                               ; preds = %78, %81
  tail call void @free(ptr noundef nonnull %0) #23
  ret void
}